; Function Attrs: mustprogress uwtable
define internal noundef nonnull ptr @"_ZNSt17_Function_handlerIFPN7xgboost6MetricEPKcENS0_6metric3$_9EE9_M_invokeERKSt9_Any_dataOS4_"(ptr nocapture nonnull readnone align 8 %0, ptr nocapture noundef nonnull readonly align 8 dereferenceable(8) %1) #4 align 2 personality ptr @__gxx_personality_v0 {
  %.val = load ptr, ptr %1, align 8
  %3 = tail call noalias noundef nonnull dereferenceable(24) ptr @_Znwm(i64 noundef 24) #29
  %4 = getelementptr inbounds i8, ptr %3, i64 8
  store ptr null, ptr %4, align 8
  store ptr getelementptr inbounds inrange(-16, 64) (i8, ptr @_ZTVN7xgboost6metric13EvalEWiseBaseINS0_9EvalErrorEEE, i64 16), ptr %3, align 8
  %5 = getelementptr inbounds i8, ptr %3, i64 16
  invoke void @_ZN7xgboost6metric9EvalErrorC2EPKc(ptr noundef nonnull align 4 dereferenceable(5) %5, ptr noundef %.val)
          to label %"_ZSt10__invoke_rIPN7xgboost6MetricERNS0_6metric3$_9EJPKcEENSt9enable_ifIX16is_invocable_r_vIT_T0_DpT1_EES9_E4typeEOSA_DpOSB_.exit" unwind label %6

6:                                                ; preds = %2
  %7 = landingpad { ptr, i32 }
          cleanup
  tail call void @_ZdlPvm(ptr noundef nonnull %3, i64 noundef 24) #30
  resume { ptr, i32 } %7

"_ZSt10__invoke_rIPN7xgboost6MetricERNS0_6metric3$_9EJPKcEENSt9enable_ifIX16is_invocable_r_vIT_T0_DpT1_EES9_E4typeEOSA_DpOSB_.exit": ; preds = %2
  ret ptr %3
}